; Function Attrs: null_pointer_is_valid sspstrong uwtable
define internal i32 @mapi_dissect_element_OpenEmbeddedMessage_repl_RecipientColumns_(ptr noundef %0, i32 noundef %1, ptr noundef %2, ptr noundef %3, ptr noundef %4, ptr noundef %5) #0 {
  %7 = alloca i32, align 4
  %8 = load i32, ptr @hf_mapi_OpenEmbeddedMessage_repl_RecipientColumns, align 4
  call void @llvm.lifetime.start.p0(i64 4, ptr nonnull %7) #6
  store i32 0, ptr %7, align 4
  %9 = call i32 @dissect_ndr_uint32(ptr noundef %0, i32 noundef %1, ptr noundef %2, ptr noundef %3, ptr noundef %4, ptr noundef %5, i32 noundef %8, ptr noundef nonnull %7)
  call void @llvm.lifetime.end.p0(i64 4, ptr nonnull %7) #6
  ret i32 %9
}